; ModuleID = '56/2037.c'
source_filename = "56/2037.c"
target datalayout = "e-m:e-p270:32:32-p271:32:32-p272:64:64-i64:64-f80:128-n8:16:32:64-S128"
target triple = "x86_64-pc-linux-gnu"

@.str = private unnamed_addr constant [3 x i8] c"%d\00", align 1

; Function Attrs: noinline nounwind uwtable
define dso_local void @main() #0 {
  %1 = alloca i32, align 4
  %2 = alloca i32, align 4
  %3 = alloca i32, align 4
  %4 = alloca i32, align 4
  %5 = alloca i32, align 4
  %6 = alloca i32, align 4
  store i32 10000, i32* %4, align 4
  store i32 0, i32* %6, align 4
  store i32 1, i32* %5, align 4
  %7 = call i32 (i8*, ...) @__isoc99_scanf(i8* getelementptr inbounds ([3 x i8], [3 x i8]* @.str, i64 0, i64 0), i32* %3)
  store i32 10000, i32* %4, align 4
  br label %8

8:                                                ; preds = %40, %0
  %9 = load i32, i32* %4, align 4
  %10 = icmp sge i32 %9, 1
  br i1 %10, label %11, label %43

11:                                               ; preds = %8
  %12 = load i32, i32* %3, align 4
  %13 = load i32, i32* %4, align 4
  %14 = sdiv i32 %12, %13
  store i32 %14, i32* %1, align 4
  %15 = load i32, i32* %3, align 4
  %16 = load i32, i32* %4, align 4
  %17 = srem i32 %15, %16
  store i32 %17, i32* %2, align 4
  %18 = load i32, i32* %2, align 4
  store i32 %18, i32* %3, align 4
  %19 = load i32, i32* %1, align 4
  %20 = icmp eq i32 %19, 0
  br i1 %20, label %21, label %24

21:                                               ; preds = %11
  %22 = load i32, i32* %5, align 4
  %23 = add nsw i32 %22, 1
  store i32 %23, i32* %5, align 4
  br label %39

24:                                               ; preds = %11
  %25 = load i32, i32* %6, align 4
  %26 = sitofp i32 %25 to double
  %27 = load i32, i32* %1, align 4
  %28 = sitofp i32 %27 to double
  %29 = load i32, i32* %5, align 4
  %30 = sub nsw i32 5, %29
  %31 = sitofp i32 %30 to double
  %32 = call double @pow(double 1.000000e+01, double %31) #3
  %33 = fmul double %28, %32
  %34 = load i32, i32* %4, align 4
  %35 = sitofp i32 %34 to double
  %36 = fdiv double %33, %35
  %37 = fadd double %26, %36
  %38 = fptosi double %37 to i32
  store i32 %38, i32* %6, align 4
  br label %39

39:                                               ; preds = %24, %21
  br label %40

40:                                               ; preds = %39
  %41 = load i32, i32* %4, align 4
  %42 = sdiv i32 %41, 10
  store i32 %42, i32* %4, align 4
  br label %8

43:                                               ; preds = %8
  %44 = load i32, i32* %6, align 4
  %45 = call i32 (i8*, ...) @printf(i8* getelementptr inbounds ([3 x i8], [3 x i8]* @.str, i64 0, i64 0), i32 %44)
  ret void
}

declare dso_local i32 @__isoc99_scanf(i8*, ...) #1

; Function Attrs: nounwind
declare dso_local double @pow(double, double) #2

declare dso_local i32 @printf(i8*, ...) #1


!llvm.module.flags = !{!0}
!llvm.ident = !{!1}

!0 = !{i32 1, !"wchar_size", i32 4}
!1 = !{!"clang version 10.0.0-4ubuntu1 "}
